; ModuleID = 'source-C-CXX/26/1749.c'
source_filename = "source-C-CXX/26/1749.c"
target datalayout = "e-m:e-p270:32:32-p271:32:32-p272:64:64-i64:64-f80:128-n8:16:32:64-S128"
target triple = "x86_64-pc-linux-gnu"

@.str = private unnamed_addr constant [3 x i8] c"%d\00", align 1
@.str.1 = private unnamed_addr constant [10 x i8] c"%lf%lf%lf\00", align 1
@.str.2 = private unnamed_addr constant [13 x i8] c"x1=x2=%.5lf\0A\00", align 1
@.str.3 = private unnamed_addr constant [19 x i8] c"x1=%.5lf;x2=%.5lf\0A\00", align 1
@.str.4 = private unnamed_addr constant [37 x i8] c"x1=0.00000+%.5lfi;x2=0.00000-%.5lfi\0A\00", align 1
@.str.5 = private unnamed_addr constant [33 x i8] c"x1=%.5lf+%.5lfi;x2=%.5lf-%.5lfi\0A\00", align 1

; Function Attrs: nofree nounwind sspstrong uwtable
define dso_local i32 @main() local_unnamed_addr #0 {
  %1 = alloca double, align 8
  %2 = alloca double, align 8
  %3 = alloca double, align 8
  %4 = alloca i32, align 4
  %5 = bitcast double* %1 to i8*
  call void @llvm.lifetime.start.p0i8(i64 8, i8* nonnull %5) #4
  %6 = bitcast double* %2 to i8*
  call void @llvm.lifetime.start.p0i8(i64 8, i8* nonnull %6) #4
  %7 = bitcast double* %3 to i8*
  call void @llvm.lifetime.start.p0i8(i64 8, i8* nonnull %7) #4
  %8 = bitcast i32* %4 to i8*
  call void @llvm.lifetime.start.p0i8(i64 4, i8* nonnull %8) #4
  %9 = call i32 (i8*, ...) @__isoc99_scanf(i8* getelementptr inbounds ([3 x i8], [3 x i8]* @.str, i64 0, i64 0), i32* nonnull %4)
  %10 = load i32, i32* %4, align 4, !tbaa !5
  %11 = icmp slt i32 %10, 1
  br i1 %11, label %80, label %12

12:                                               ; preds = %0, %76
  %13 = phi i32 [ %77, %76 ], [ 1, %0 ]
  %14 = call i32 (i8*, ...) @__isoc99_scanf(i8* getelementptr inbounds ([10 x i8], [10 x i8]* @.str.1, i64 0, i64 0), double* nonnull %1, double* nonnull %2, double* nonnull %3)
  %15 = load double, double* %2, align 8, !tbaa !9
  %16 = fmul double %15, %15
  %17 = load double, double* %1, align 8, !tbaa !9
  %18 = fmul double %17, 4.000000e+00
  %19 = load double, double* %3, align 8, !tbaa !9
  %20 = fmul double %18, %19
  %21 = fsub double %16, %20
  %22 = fcmp oeq double %21, 0.000000e+00
  br i1 %22, label %23, label %28

23:                                               ; preds = %12
  %24 = fneg double %15
  %25 = fmul double %17, 2.000000e+00
  %26 = fdiv double %24, %25
  %27 = call i32 (i8*, ...) @printf(i8* nonnull dereferenceable(1) getelementptr inbounds ([13 x i8], [13 x i8]* @.str.2, i64 0, i64 0), double %26)
  br label %28

28:                                               ; preds = %23, %12
  %29 = fcmp ogt double %21, 0.000000e+00
  br i1 %29, label %30, label %56

30:                                               ; preds = %28
  %31 = load double, double* %2, align 8, !tbaa !9
  %32 = fmul double %31, %31
  %33 = load double, double* %1, align 8, !tbaa !9
  %34 = fmul double %33, 4.000000e+00
  %35 = load double, double* %3, align 8, !tbaa !9
  %36 = fmul double %34, %35
  %37 = fsub double %32, %36
  %38 = call double @sqrt(double %37) #4
  %39 = fsub double %38, %31
  %40 = load double, double* %1, align 8, !tbaa !9
  %41 = fmul double %40, 2.000000e+00
  %42 = fdiv double %39, %41
  %43 = load double, double* %2, align 8, !tbaa !9
  %44 = fneg double %43
  %45 = fmul double %43, %43
  %46 = fmul double %40, 4.000000e+00
  %47 = load double, double* %3, align 8, !tbaa !9
  %48 = fmul double %46, %47
  %49 = fsub double %45, %48
  %50 = call double @sqrt(double %49) #4
  %51 = fsub double %44, %50
  %52 = load double, double* %1, align 8, !tbaa !9
  %53 = fmul double %52, 2.000000e+00
  %54 = fdiv double %51, %53
  %55 = call i32 (i8*, ...) @printf(i8* nonnull dereferenceable(1) getelementptr inbounds ([19 x i8], [19 x i8]* @.str.3, i64 0, i64 0), double %42, double %54)
  br label %56

56:                                               ; preds = %30, %28
  %57 = fcmp olt double %21, 0.000000e+00
  br i1 %57, label %58, label %76

58:                                               ; preds = %56
  %59 = load double, double* %2, align 8, !tbaa !9
  %60 = fneg double %59
  %61 = load double, double* %1, align 8, !tbaa !9
  %62 = fmul double %61, 2.000000e+00
  %63 = fdiv double %60, %62
  %64 = fneg double %21
  %65 = call double @sqrt(double %64) #4
  %66 = load double, double* %1, align 8, !tbaa !9
  %67 = fmul double %66, 2.000000e+00
  %68 = fdiv double %65, %67
  %69 = fcmp olt double %63, 1.000000e-03
  %70 = fcmp ogt double %63, -1.000000e-03
  %71 = and i1 %69, %70
  br i1 %71, label %72, label %74

72:                                               ; preds = %58
  %73 = call i32 (i8*, ...) @printf(i8* nonnull dereferenceable(1) getelementptr inbounds ([37 x i8], [37 x i8]* @.str.4, i64 0, i64 0), double %68, double %68)
  br label %76

74:                                               ; preds = %58
  %75 = call i32 (i8*, ...) @printf(i8* nonnull dereferenceable(1) getelementptr inbounds ([33 x i8], [33 x i8]* @.str.5, i64 0, i64 0), double %63, double %68, double %63, double %68)
  br label %76

76:                                               ; preds = %56, %74, %72
  %77 = add nuw nsw i32 %13, 1
  %78 = load i32, i32* %4, align 4, !tbaa !5
  %79 = icmp slt i32 %13, %78
  br i1 %79, label %12, label %80, !llvm.loop !11

80:                                               ; preds = %76, %0
  call void @llvm.lifetime.end.p0i8(i64 4, i8* nonnull %8) #4
  call void @llvm.lifetime.end.p0i8(i64 8, i8* nonnull %7) #4
  call void @llvm.lifetime.end.p0i8(i64 8, i8* nonnull %6) #4
  call void @llvm.lifetime.end.p0i8(i64 8, i8* nonnull %5) #4
  ret i32 0
}

; Function Attrs: argmemonly mustprogress nofree nosync nounwind willreturn
declare void @llvm.lifetime.start.p0i8(i64 immarg, i8* nocapture) #1

; Function Attrs: nofree nounwind
declare noundef i32 @__isoc99_scanf(i8* nocapture noundef readonly, ...) local_unnamed_addr #2

; Function Attrs: nofree nounwind
declare noundef i32 @printf(i8* nocapture noundef readonly, ...) local_unnamed_addr #2

; Function Attrs: mustprogress nofree nounwind willreturn
declare double @sqrt(double) local_unnamed_addr #3

; Function Attrs: argmemonly mustprogress nofree nosync nounwind willreturn
declare void @llvm.lifetime.end.p0i8(i64 immarg, i8* nocapture) #1


!llvm.module.flags = !{!0, !1, !2, !3}
!llvm.ident = !{!4}

!0 = !{i32 1, !"wchar_size", i32 4}
!1 = !{i32 7, !"PIC Level", i32 2}
!2 = !{i32 7, !"PIE Level", i32 2}
!3 = !{i32 7, !"uwtable", i32 1}
!4 = !{!"clang version 13.0.0"}
!5 = !{!6, !6, i64 0}
!6 = !{!"int", !7, i64 0}
!7 = !{!"omnipotent char", !8, i64 0}
!8 = !{!"Simple C/C++ TBAA"}
!9 = !{!10, !10, i64 0}
!10 = !{!"double", !7, i64 0}
!11 = distinct !{!11, !12}
!12 = !{!"llvm.loop.mustprogress"}
